; Function Attrs: mustprogress uwtable
define internal noundef ptr @"_ZZN4pkpy5VoidP9_registerEPNS_2VMEPNS_8PyObjectES4_EN3$_48__invokeES2_S4_S4_"(ptr noundef nonnull %0, ptr nocapture noundef readonly %1, ptr noundef %2) #3 align 2 {
  %4 = tail call i16 @_ZN4pkpy2VM28_find_type_in_cxx_typeid_mapINS_5VoidPEEENS_4TypeEv(ptr noundef nonnull align 8 dereferenceable(264913) %0)
  %5 = tail call noundef zeroext i1 @_ZN4pkpy2VM10isinstanceEPNS_8PyObjectENS_4TypeE(ptr noundef nonnull align 8 dereferenceable(264913) %0, ptr noundef %2, i16 %4)
  br i1 %5, label %6, label %"_ZZN4pkpy5VoidP9_registerEPNS_2VMEPNS_8PyObjectES4_ENK3$_4clES2_S4_S4_.exit"

6:                                                ; preds = %3
  %7 = getelementptr inbounds i8, ptr %1, i64 24
  %8 = load ptr, ptr %7, align 8
  %9 = getelementptr inbounds i8, ptr %2, i64 24
  %10 = load ptr, ptr %9, align 8
  %11 = icmp ult ptr %8, %10
  %.in.v.i.i = select i1 %11, i64 264528, i64 264536
  br label %"_ZZN4pkpy5VoidP9_registerEPNS_2VMEPNS_8PyObjectES4_ENK3$_4clES2_S4_S4_.exit"

"_ZZN4pkpy5VoidP9_registerEPNS_2VMEPNS_8PyObjectES4_ENK3$_4clES2_S4_S4_.exit": ; preds = %3, %6
  %.in.v.i.sink.i = phi i64 [ %.in.v.i.i, %6 ], [ 264544, %3 ]
  %.in.i.i = getelementptr inbounds i8, ptr %0, i64 %.in.v.i.sink.i
  %.0.i = load ptr, ptr %.in.i.i, align 8
  ret ptr %.0.i
}